target datalayout = "e-m:e-p270:32:32-p271:32:32-p272:64:64-i64:64-i128:128-f80:128-n8:16:32:64-S128"
target triple = "x86_64-pc-linux-gnu"

; Function Attrs: nounwind uwtable
define void @rgb64tobgr48_nobswap(ptr noundef %0, ptr noundef %1, i32 noundef %2) #0 {
  %4 = alloca ptr, align 8
  %5 = alloca ptr, align 8
  %6 = alloca i32, align 4
  %7 = alloca ptr, align 8
  %8 = alloca ptr, align 8
  %9 = alloca i32, align 4
  %10 = alloca i32, align 4
  store ptr %0, ptr %4, align 8, !tbaa !4
  store ptr %1, ptr %5, align 8, !tbaa !4
  store i32 %2, ptr %6, align 4, !tbaa !9
  call void @llvm.lifetime.start.p0(i64 8, ptr %7) #5
  %11 = load ptr, ptr %5, align 8, !tbaa !4
  store ptr %11, ptr %7, align 8, !tbaa !20
  call void @llvm.lifetime.start.p0(i64 8, ptr %8) #5
  %12 = load ptr, ptr %4, align 8, !tbaa !4
  store ptr %12, ptr %8, align 8, !tbaa !20
  call void @llvm.lifetime.start.p0(i64 4, ptr %9) #5
  call void @llvm.lifetime.start.p0(i64 4, ptr %10) #5
  %13 = load i32, ptr %6, align 4, !tbaa !9
  %14 = ashr i32 %13, 3
  store i32 %14, ptr %10, align 4, !tbaa !9
  store i32 0, ptr %9, align 4, !tbaa !9
  br label %15

15:                                               ; preds = %63, %3
  %16 = load i32, ptr %9, align 4, !tbaa !9
  %17 = load i32, ptr %10, align 4, !tbaa !9
  %18 = icmp slt i32 %16, %17
  br i1 %18, label %19, label %66

19:                                               ; preds = %15
  %20 = load ptr, ptr %8, align 8, !tbaa !20
  %21 = load i32, ptr %9, align 4, !tbaa !9
  %22 = mul nsw i32 4, %21
  %23 = add nsw i32 %22, 2
  %24 = sext i32 %23 to i64
  %25 = getelementptr inbounds i16, ptr %20, i64 %24
  %26 = load i16, ptr %25, align 2, !tbaa !22
  %27 = zext i16 %26 to i32
  %28 = trunc i32 %27 to i16
  %29 = load ptr, ptr %7, align 8, !tbaa !20
  %30 = load i32, ptr %9, align 4, !tbaa !9
  %31 = mul nsw i32 3, %30
  %32 = sext i32 %31 to i64
  %33 = getelementptr inbounds i16, ptr %29, i64 %32
  store i16 %28, ptr %33, align 2, !tbaa !22
  %34 = load ptr, ptr %8, align 8, !tbaa !20
  %35 = load i32, ptr %9, align 4, !tbaa !9
  %36 = mul nsw i32 4, %35
  %37 = add nsw i32 %36, 1
  %38 = sext i32 %37 to i64
  %39 = getelementptr inbounds i16, ptr %34, i64 %38
  %40 = load i16, ptr %39, align 2, !tbaa !22
  %41 = zext i16 %40 to i32
  %42 = trunc i32 %41 to i16
  %43 = load ptr, ptr %7, align 8, !tbaa !20
  %44 = load i32, ptr %9, align 4, !tbaa !9
  %45 = mul nsw i32 3, %44
  %46 = add nsw i32 %45, 1
  %47 = sext i32 %46 to i64
  %48 = getelementptr inbounds i16, ptr %43, i64 %47
  store i16 %42, ptr %48, align 2, !tbaa !22
  %49 = load ptr, ptr %8, align 8, !tbaa !20
  %50 = load i32, ptr %9, align 4, !tbaa !9
  %51 = mul nsw i32 4, %50
  %52 = sext i32 %51 to i64
  %53 = getelementptr inbounds i16, ptr %49, i64 %52
  %54 = load i16, ptr %53, align 2, !tbaa !22
  %55 = zext i16 %54 to i32
  %56 = trunc i32 %55 to i16
  %57 = load ptr, ptr %7, align 8, !tbaa !20
  %58 = load i32, ptr %9, align 4, !tbaa !9
  %59 = mul nsw i32 3, %58
  %60 = add nsw i32 %59, 2
  %61 = sext i32 %60 to i64
  %62 = getelementptr inbounds i16, ptr %57, i64 %61
  store i16 %56, ptr %62, align 2, !tbaa !22
  br label %63

63:                                               ; preds = %19
  %64 = load i32, ptr %9, align 4, !tbaa !9
  %65 = add nsw i32 %64, 1
  store i32 %65, ptr %9, align 4, !tbaa !9
  br label %15, !llvm.loop !36

66:                                               ; preds = %15
  call void @llvm.lifetime.end.p0(i64 4, ptr %10) #5
  call void @llvm.lifetime.end.p0(i64 4, ptr %9) #5
  call void @llvm.lifetime.end.p0(i64 8, ptr %8) #5
  call void @llvm.lifetime.end.p0(i64 8, ptr %7) #5
  ret void
}